target datalayout = "e-m:e-p270:32:32-p271:32:32-p272:64:64-i64:64-i128:128-f80:128-n8:16:32:64-S128"
target triple = "x86_64-pc-linux-gnu"

%struct.H5O_msg_class_t = type { i32, ptr, i64, i32, ptr, ptr, ptr, ptr, ptr, ptr, ptr, ptr, ptr, ptr, ptr, ptr, ptr, ptr, ptr, ptr }
%struct.H5FL_reg_head_t = type { i8, i32, i32, ptr, i64, ptr }

@.str.1 = private unnamed_addr constant [103 x i8] c"generated/home/dtcxzyw/WorkSpace/Projects/compilers/llvm-opt-benchmark/bench/hdf5/hdf5/src/H5Oshared.h\00", align 1
@H5E_OHDR_g = external global i64, align 8
@.str.4 = private unnamed_addr constant [102 x i8] c"generated/home/dtcxzyw/WorkSpace/Projects/compilers/llvm-opt-benchmark/bench/hdf5/hdf5/src/H5Odtype.c\00", align 1
@H5E_DATATYPE_g = external global i64, align 8
@H5E_CANTCOPY_g = external global i64, align 8
@H5E_CANTINIT_g = external global i64, align 8
@__func__.H5O__dtype_shared_copy_file = private unnamed_addr constant [28 x i8] c"H5O__dtype_shared_copy_file\00", align 1
@.str.72 = private unnamed_addr constant [46 x i8] c"unable to copy native message to another file\00", align 1
@H5E_WRITEERROR_g = external global i64, align 8
@.str.73 = private unnamed_addr constant [48 x i8] c"unable to determine if message should be shared\00", align 1
@__func__.H5O__dtype_copy_file = private unnamed_addr constant [21 x i8] c"H5O__dtype_copy_file\00", align 1
@.str.74 = private unnamed_addr constant [15 x i8] c"unable to copy\00", align 1
@.str.75 = private unnamed_addr constant [23 x i8] c"unable to set location\00", align 1
@__func__.H5O__dtype_copy = private unnamed_addr constant [16 x i8] c"H5O__dtype_copy\00", align 1
@.str.173 = private unnamed_addr constant [16 x i8] c"can't copy type\00", align 1
@H5_H5T_t_reg_free_list = external global %struct.H5FL_reg_head_t, align 8

; Function Attrs: nounwind uwtable
define internal ptr @H5O__dtype_copy(ptr noundef %0, ptr noundef %1) #0 {
  %3 = alloca ptr, align 8
  %4 = alloca ptr, align 8
  %5 = alloca ptr, align 8
  %6 = alloca ptr, align 8
  %7 = alloca ptr, align 8
  %8 = alloca i8, align 1
  store ptr %0, ptr %3, align 8
  store ptr %1, ptr %4, align 8
  %9 = load ptr, ptr %3, align 8
  store ptr %9, ptr %5, align 8
  store ptr null, ptr %7, align 8
  store i8 0, ptr %8, align 1
  %10 = load ptr, ptr %5, align 8
  %11 = call ptr @H5T_copy(ptr noundef %10, i32 noundef 1)
  store ptr %11, ptr %6, align 8
  %12 = icmp eq ptr null, %11
  br i1 %12, label %13, label %28

13:                                               ; preds = %2
  br label %14

14:                                               ; preds = %13
  br label %15

15:                                               ; preds = %14
  br label %16

16:                                               ; preds = %15
  %17 = load i64, ptr @H5E_DATATYPE_g, align 8
  %18 = load i64, ptr @H5E_CANTINIT_g, align 8
  %19 = call i32 (ptr, ptr, i32, i64, i64, ptr, ...) @H5E_printf_stack(ptr noundef @.str.4, ptr noundef @__func__.H5O__dtype_copy, i32 noundef 1510, i64 noundef %17, i64 noundef %18, ptr noundef @.str.173)
  br label %20

20:                                               ; preds = %16
  store i8 1, ptr %8, align 1
  %21 = load i8, ptr %8, align 1
  %22 = trunc i8 %21 to i1
  %23 = zext i1 %22 to i8
  store i8 %23, ptr %8, align 1
  br label %24

24:                                               ; preds = %20
  br label %25

25:                                               ; preds = %24
  store ptr null, ptr %7, align 8
  br label %39

26:                                               ; No predecessors!
  br label %27

27:                                               ; preds = %26
  br label %28

28:                                               ; preds = %27, %2
  %29 = load ptr, ptr %4, align 8
  %30 = icmp ne ptr %29, null
  br i1 %30, label %31, label %37

31:                                               ; preds = %28
  %32 = load ptr, ptr %4, align 8
  %33 = load ptr, ptr %6, align 8
  call void @llvm.memcpy.p0.p0.i64(ptr align 8 %32, ptr align 8 %33, i64 104, i1 false)
  %34 = load ptr, ptr %6, align 8
  %35 = call ptr @H5FL_reg_free(ptr noundef @H5_H5T_t_reg_free_list, ptr noundef %34)
  store ptr %35, ptr %6, align 8
  %36 = load ptr, ptr %4, align 8
  store ptr %36, ptr %6, align 8
  br label %37

37:                                               ; preds = %31, %28
  %38 = load ptr, ptr %6, align 8
  store ptr %38, ptr %7, align 8
  br label %39

39:                                               ; preds = %37, %25
  %40 = load ptr, ptr %7, align 8
  ret ptr %40
}

; Function Attrs: nounwind uwtable
define internal ptr @H5O__dtype_copy_file(ptr noundef %0, ptr noundef %1, ptr noundef %2, ptr noundef %3, ptr noundef %4, ptr noundef %5, ptr noundef %6) #0 {
  %8 = alloca ptr, align 8
  %9 = alloca ptr, align 8
  %10 = alloca ptr, align 8
  %11 = alloca ptr, align 8
  %12 = alloca ptr, align 8
  %13 = alloca ptr, align 8
  %14 = alloca ptr, align 8
  %15 = alloca ptr, align 8
  %16 = alloca ptr, align 8
  %17 = alloca i8, align 1
  store ptr %0, ptr %8, align 8
  store ptr %1, ptr %9, align 8
  store ptr %2, ptr %10, align 8
  store ptr %3, ptr %11, align 8
  store ptr %4, ptr %12, align 8
  store ptr %5, ptr %13, align 8
  store ptr %6, ptr %14, align 8
  store ptr null, ptr %16, align 8
  store i8 0, ptr %17, align 1
  %18 = load ptr, ptr %10, align 8
  %19 = call ptr @H5O__dtype_copy(ptr noundef %18, ptr noundef null)
  store ptr %19, ptr %15, align 8
  %20 = icmp eq ptr null, %19
  br i1 %20, label %21, label %36

21:                                               ; preds = %7
  br label %22

22:                                               ; preds = %21
  br label %23

23:                                               ; preds = %22
  br label %24

24:                                               ; preds = %23
  %25 = load i64, ptr @H5E_DATATYPE_g, align 8
  %26 = load i64, ptr @H5E_CANTINIT_g, align 8
  %27 = call i32 (ptr, ptr, i32, i64, i64, ptr, ...) @H5E_printf_stack(ptr noundef @.str.4, ptr noundef @__func__.H5O__dtype_copy_file, i32 noundef 1873, i64 noundef %25, i64 noundef %26, ptr noundef @.str.74)
  br label %28

28:                                               ; preds = %24
  store i8 1, ptr %17, align 1
  %29 = load i8, ptr %17, align 1
  %30 = trunc i8 %29 to i1
  %31 = zext i1 %30 to i8
  store i8 %31, ptr %17, align 1
  br label %32

32:                                               ; preds = %28
  br label %33

33:                                               ; preds = %32
  store ptr null, ptr %16, align 8
  br label %59

34:                                               ; No predecessors!
  br label %35

35:                                               ; preds = %34
  br label %36

36:                                               ; preds = %35, %7
  %37 = load ptr, ptr %15, align 8
  %38 = load ptr, ptr %11, align 8
  %39 = call ptr @H5F_get_vol_obj(ptr noundef %38)
  %40 = call i32 @H5T_set_loc(ptr noundef %37, ptr noundef %39, i32 noundef 2)
  %41 = icmp slt i32 %40, 0
  br i1 %41, label %42, label %57

42:                                               ; preds = %36
  br label %43

43:                                               ; preds = %42
  br label %44

44:                                               ; preds = %43
  br label %45

45:                                               ; preds = %44
  %46 = load i64, ptr @H5E_DATATYPE_g, align 8
  %47 = load i64, ptr @H5E_CANTINIT_g, align 8
  %48 = call i32 (ptr, ptr, i32, i64, i64, ptr, ...) @H5E_printf_stack(ptr noundef @.str.4, ptr noundef @__func__.H5O__dtype_copy_file, i32 noundef 1877, i64 noundef %46, i64 noundef %47, ptr noundef @.str.75)
  br label %49

49:                                               ; preds = %45
  store i8 1, ptr %17, align 1
  %50 = load i8, ptr %17, align 1
  %51 = trunc i8 %50 to i1
  %52 = zext i1 %51 to i8
  store i8 %52, ptr %17, align 1
  br label %53

53:                                               ; preds = %49
  br label %54

54:                                               ; preds = %53
  store ptr null, ptr %16, align 8
  br label %59

55:                                               ; No predecessors!
  br label %56

56:                                               ; preds = %55
  br label %57

57:                                               ; preds = %56, %36
  %58 = load ptr, ptr %15, align 8
  store ptr %58, ptr %16, align 8
  br label %59

59:                                               ; preds = %57, %54, %33
  %60 = load ptr, ptr %16, align 8
  %61 = icmp eq ptr null, %60
  br i1 %61, label %62, label %68

62:                                               ; preds = %59
  %63 = load ptr, ptr %9, align 8
  %64 = getelementptr inbounds %struct.H5O_msg_class_t, ptr %63, i32 0, i32 0
  %65 = load i32, ptr %64, align 8
  %66 = load ptr, ptr %15, align 8
  %67 = call ptr @H5O_msg_free(i32 noundef %65, ptr noundef %66)
  br label %68

68:                                               ; preds = %62, %59
  %69 = load ptr, ptr %16, align 8
  ret ptr %69
}

; Function Attrs: nounwind uwtable
define internal ptr @H5O__dtype_shared_copy_file(ptr noundef %0, ptr noundef %1, ptr noundef %2, ptr noundef %3, ptr noundef %4, ptr noundef %5, ptr noundef %6) #0 {
  %8 = alloca ptr, align 8
  %9 = alloca ptr, align 8
  %10 = alloca ptr, align 8
  %11 = alloca ptr, align 8
  %12 = alloca ptr, align 8
  %13 = alloca ptr, align 8
  %14 = alloca ptr, align 8
  %15 = alloca ptr, align 8
  %16 = alloca ptr, align 8
  %17 = alloca i8, align 1
  store ptr %0, ptr %8, align 8
  store ptr %1, ptr %9, align 8
  store ptr %2, ptr %10, align 8
  store ptr %3, ptr %11, align 8
  store ptr %4, ptr %12, align 8
  store ptr %5, ptr %13, align 8
  store ptr %6, ptr %14, align 8
  store ptr null, ptr %15, align 8
  store ptr null, ptr %16, align 8
  store i8 0, ptr %17, align 1
  %18 = load ptr, ptr %8, align 8
  %19 = load ptr, ptr %9, align 8
  %20 = load ptr, ptr %10, align 8
  %21 = load ptr, ptr %11, align 8
  %22 = load ptr, ptr %13, align 8
  %23 = load ptr, ptr %14, align 8
  %24 = call ptr @H5O__dtype_copy_file(ptr noundef %18, ptr noundef @H5O_MSG_DTYPE, ptr noundef %19, ptr noundef %20, ptr noundef %21, ptr noundef %22, ptr noundef %23)
  store ptr %24, ptr %15, align 8
  %25 = icmp eq ptr null, %24
  br i1 %25, label %26, label %41

26:                                               ; preds = %7
  br label %27

27:                                               ; preds = %26
  br label %28

28:                                               ; preds = %27
  br label %29

29:                                               ; preds = %28
  %30 = load i64, ptr @H5E_OHDR_g, align 8
  %31 = load i64, ptr @H5E_CANTCOPY_g, align 8
  %32 = call i32 (ptr, ptr, i32, i64, i64, ptr, ...) @H5E_printf_stack(ptr noundef @.str.1, ptr noundef @__func__.H5O__dtype_shared_copy_file, i32 noundef 303, i64 noundef %30, i64 noundef %31, ptr noundef @.str.72)
  br label %33

33:                                               ; preds = %29
  store i8 1, ptr %17, align 1
  %34 = load i8, ptr %17, align 1
  %35 = trunc i8 %34 to i1
  %36 = zext i1 %35 to i8
  store i8 %36, ptr %17, align 1
  br label %37

37:                                               ; preds = %33
  br label %38

38:                                               ; preds = %37
  store ptr null, ptr %16, align 8
  br label %70

39:                                               ; No predecessors!
  br label %40

40:                                               ; preds = %39
  br label %41

41:                                               ; preds = %40, %7
  %42 = load ptr, ptr %15, align 8
  call void @llvm.memset.p0.i64(ptr align 1 %42, i8 0, i64 40, i1 false)
  %43 = load ptr, ptr %8, align 8
  %44 = load ptr, ptr %10, align 8
  %45 = load ptr, ptr %9, align 8
  %46 = load ptr, ptr %15, align 8
  %47 = load ptr, ptr %11, align 8
  %48 = load ptr, ptr %12, align 8
  %49 = load ptr, ptr %13, align 8
  %50 = load ptr, ptr %14, align 8
  %51 = call i32 @H5O__shared_copy_file(ptr noundef %43, ptr noundef %44, ptr noundef @H5O_MSG_DTYPE, ptr noundef %45, ptr noundef %46, ptr noundef %47, ptr noundef %48, ptr noundef %49, ptr noundef %50)
  %52 = icmp slt i32 %51, 0
  br i1 %52, label %53, label %68

53:                                               ; preds = %41
  br label %54

54:                                               ; preds = %53
  br label %55

55:                                               ; preds = %54
  br label %56

56:                                               ; preds = %55
  %57 = load i64, ptr @H5E_OHDR_g, align 8
  %58 = load i64, ptr @H5E_WRITEERROR_g, align 8
  %59 = call i32 (ptr, ptr, i32, i64, i64, ptr, ...) @H5E_printf_stack(ptr noundef @.str.1, ptr noundef @__func__.H5O__dtype_shared_copy_file, i32 noundef 316, i64 noundef %57, i64 noundef %58, ptr noundef @.str.73)
  br label %60

60:                                               ; preds = %56
  store i8 1, ptr %17, align 1
  %61 = load i8, ptr %17, align 1
  %62 = trunc i8 %61 to i1
  %63 = zext i1 %62 to i8
  store i8 %63, ptr %17, align 1
  br label %64

64:                                               ; preds = %60
  br label %65

65:                                               ; preds = %64
  store ptr null, ptr %16, align 8
  br label %70

66:                                               ; No predecessors!
  br label %67

67:                                               ; preds = %66
  br label %68

68:                                               ; preds = %67, %41
  %69 = load ptr, ptr %15, align 8
  store ptr %69, ptr %16, align 8
  br label %70

70:                                               ; preds = %68, %65, %38
  %71 = load ptr, ptr %16, align 8
  %72 = icmp ne ptr %71, null
  br i1 %72, label %80, label %73

73:                                               ; preds = %70
  %74 = load ptr, ptr %15, align 8
  %75 = icmp ne ptr %74, null
  br i1 %75, label %76, label %79

76:                                               ; preds = %73
  %77 = load ptr, ptr %15, align 8
  %78 = call ptr @H5O_msg_free(i32 noundef 3, ptr noundef %77)
  br label %79

79:                                               ; preds = %76, %73
  br label %80

80:                                               ; preds = %79, %70
  %81 = load ptr, ptr %16, align 8
  ret ptr %81
}