; Function Attrs: nounwind uwtable
define internal ptr @H5O__dtype_shared_copy_file(ptr noundef %0, ptr noundef %1, ptr noundef %2, ptr noundef %3, ptr noundef %4, ptr noundef %5, ptr noundef %6) #0 {
  %8 = tail call ptr @H5T_copy(ptr noundef %1, i32 noundef 1) #15
  %9 = icmp eq ptr %8, null
  br i1 %9, label %10, label %H5O__dtype_copy.exit.i

10:                                               ; preds = %7
  %11 = load i64, ptr @H5E_DATATYPE_g, align 8
  %12 = load i64, ptr @H5E_CANTINIT_g, align 8
  %13 = tail call i32 (ptr, ptr, i32, i64, i64, ptr, ...) @H5E_printf_stack(ptr noundef nonnull @.str.4, ptr noundef nonnull @__func__.H5O__dtype_copy, i32 noundef 1510, i64 noundef %11, i64 noundef %12, ptr noundef nonnull @.str.173) #15
  %14 = load i64, ptr @H5E_DATATYPE_g, align 8
  %15 = load i64, ptr @H5E_CANTINIT_g, align 8
  %16 = tail call i32 (ptr, ptr, i32, i64, i64, ptr, ...) @H5E_printf_stack(ptr noundef nonnull @.str.4, ptr noundef nonnull @__func__.H5O__dtype_copy_file, i32 noundef 1873, i64 noundef %14, i64 noundef %15, ptr noundef nonnull @.str.74) #15
  br label %24

H5O__dtype_copy.exit.i:                           ; preds = %7
  %17 = tail call ptr @H5F_get_vol_obj(ptr noundef %2) #15
  %18 = tail call i32 @H5T_set_loc(ptr noundef nonnull %8, ptr noundef %17, i32 noundef 2) #15
  %19 = icmp slt i32 %18, 0
  br i1 %19, label %20, label %H5O__dtype_copy_file.exit

20:                                               ; preds = %H5O__dtype_copy.exit.i
  %21 = load i64, ptr @H5E_DATATYPE_g, align 8
  %22 = load i64, ptr @H5E_CANTINIT_g, align 8
  %23 = tail call i32 (ptr, ptr, i32, i64, i64, ptr, ...) @H5E_printf_stack(ptr noundef nonnull @.str.4, ptr noundef nonnull @__func__.H5O__dtype_copy_file, i32 noundef 1877, i64 noundef %21, i64 noundef %22, ptr noundef nonnull @.str.75) #15
  br label %24

24:                                               ; preds = %10, %20
  %25 = tail call ptr @H5O_msg_free(i32 noundef 3, ptr noundef %8) #15
  %26 = load i64, ptr @H5E_OHDR_g, align 8
  %27 = load i64, ptr @H5E_CANTCOPY_g, align 8
  %28 = tail call i32 (ptr, ptr, i32, i64, i64, ptr, ...) @H5E_printf_stack(ptr noundef nonnull @.str.1, ptr noundef nonnull @__func__.H5O__dtype_shared_copy_file, i32 noundef 303, i64 noundef %26, i64 noundef %27, ptr noundef nonnull @.str.72) #15
  br label %.thread

H5O__dtype_copy_file.exit:                        ; preds = %H5O__dtype_copy.exit.i
  tail call void @llvm.memset.p0.i64(ptr noundef nonnull align 1 dereferenceable(40) %8, i8 0, i64 40, i1 false)
  %29 = tail call i32 @H5O__shared_copy_file(ptr noundef %0, ptr noundef %2, ptr noundef nonnull @H5O_MSG_DTYPE, ptr noundef %1, ptr noundef nonnull %8, ptr noundef %3, ptr noundef %4, ptr noundef %5, ptr noundef %6) #15
  %30 = icmp slt i32 %29, 0
  br i1 %30, label %31, label %.thread

31:                                               ; preds = %H5O__dtype_copy_file.exit
  %32 = load i64, ptr @H5E_OHDR_g, align 8
  %33 = load i64, ptr @H5E_WRITEERROR_g, align 8
  %34 = tail call i32 (ptr, ptr, i32, i64, i64, ptr, ...) @H5E_printf_stack(ptr noundef nonnull @.str.1, ptr noundef nonnull @__func__.H5O__dtype_shared_copy_file, i32 noundef 316, i64 noundef %32, i64 noundef %33, ptr noundef nonnull @.str.73) #15
  %35 = tail call ptr @H5O_msg_free(i32 noundef 3, ptr noundef nonnull %8) #15
  br label %.thread

.thread:                                          ; preds = %24, %H5O__dtype_copy_file.exit, %31
  %.029 = phi ptr [ null, %31 ], [ %8, %H5O__dtype_copy_file.exit ], [ null, %24 ]
  ret ptr %.029
}